; Function Attrs: nofree norecurse nosync nounwind memory(read, inaccessiblemem: none) uwtable
define internal fastcc zeroext i1 @php_is_stream_path(ptr noundef readonly %0) unnamed_addr #10 {
  br label %2

2:                                                ; preds = %.critedge, %1
  %.0 = phi ptr [ %0, %1 ], [ %8, %.critedge ]
  %3 = load i8, ptr %.0, align 1
  %4 = and i8 %3, -33
  %5 = add i8 %4, -65
  %or.cond23 = icmp ult i8 %5, 26
  %6 = add i8 %3, -48
  %or.cond21 = icmp ult i8 %6, 10
  %or.cond24 = or i1 %or.cond21, %or.cond23
  br i1 %or.cond24, label %.critedge, label %7

7:                                                ; preds = %2
  switch i8 %3, label %9 [
    i8 43, label %.critedge
    i8 45, label %.critedge
    i8 46, label %.critedge
  ]

.critedge:                                        ; preds = %7, %7, %7, %2
  %8 = getelementptr inbounds i8, ptr %.0, i64 1
  br label %2

9:                                                ; preds = %7
  %.not = icmp ne ptr %.0, %0
  %10 = icmp eq i8 %3, 58
  %or.cond22 = and i1 %.not, %10
  br i1 %or.cond22, label %11, label %19

11:                                               ; preds = %9
  %12 = getelementptr inbounds i8, ptr %.0, i64 1
  %13 = load i8, ptr %12, align 1
  %14 = icmp eq i8 %13, 47
  br i1 %14, label %15, label %19

15:                                               ; preds = %11
  %16 = getelementptr inbounds i8, ptr %.0, i64 2
  %17 = load i8, ptr %16, align 1
  %18 = icmp eq i8 %17, 47
  br label %19

19:                                               ; preds = %15, %11, %9
  %20 = phi i1 [ false, %11 ], [ false, %9 ], [ %18, %15 ]
  ret i1 %20
}